; Function Attrs: mustprogress nofree norecurse nosync nounwind willreturn memory(argmem: readwrite) uwtable
define internal noundef i32 @_set_min_prio_tier(ptr noundef readonly captures(none) %0, ptr noundef captures(none) %1) #23 {
  %3 = getelementptr inbounds nuw i8, ptr %0, i64 286
  %4 = load i16, ptr %3, align 2
  %5 = load i16, ptr %1, align 2
  %6 = icmp ult i16 %4, %5
  br i1 %6, label %7, label %8

7:                                                ; preds = %2
  store i16 %4, ptr %1, align 2
  br label %8

8:                                                ; preds = %7, %2
  ret i32 0
}